target datalayout = "e-m:e-p270:32:32-p271:32:32-p272:64:64-i64:64-i128:128-f80:128-n8:16:32:64-S128"
target triple = "x86_64-pc-linux-gnu"

%struct.H5D_chk_idx_info_t = type { ptr, ptr, ptr, ptr }
%struct.H5O_storage_chunk_t = type { i32, i64, ptr, %union.anon }
%union.anon = type { %struct.H5O_storage_chunk_btree_t }
%struct.H5O_storage_chunk_btree_t = type { i64, ptr }
%struct.H5O_storage_chunk_bt2_t = type { i64, ptr }
%struct.H5O_layout_chunk_t = type { i32, i8, i32, [33 x i32], i32, i32, i64, i64, [33 x i64], [33 x i64], [33 x i64], [33 x i64], %union.anon.0 }
%union.anon.0 = type { %struct.H5O_layout_chunk_earray_t }
%struct.H5O_layout_chunk_earray_t = type { %struct.anon.1, i32, [33 x i32], [33 x i64], [33 x i64] }
%struct.anon.1 = type { i8, i8, i8, i8, i8 }
%struct.H5O_pline_t = type { %struct.H5O_shared_t, i32, i64, i64, ptr }
%struct.H5O_shared_t = type { i32, ptr, i32, %union.anon.3 }
%union.anon.3 = type { %struct.H5O_mesg_loc_t }
%struct.H5O_mesg_loc_t = type { i32, i64 }
%struct.H5D_bt2_ud_t = type { %struct.H5D_chunk_rec_t, i32 }
%struct.H5D_chunk_rec_t = type { [33 x i64], i32, i32, i64 }
%struct.H5D_chunk_ud_t = type { %struct.H5D_chunk_common_ud_t, i32, %struct.H5F_block_t, i32, i8, i64 }
%struct.H5D_chunk_common_ud_t = type { ptr, ptr, ptr }
%struct.H5F_block_t = type { i64, i64 }

@.str.2 = private unnamed_addr constant [103 x i8] c"generated/home/dtcxzyw/WorkSpace/Projects/compilers/llvm-opt-benchmark/bench/hdf5/hdf5/src/H5Dbtree2.c\00", align 1
@H5E_DATASET_g = external global i64, align 8
@H5E_CANTOPENOBJ_g = external global i64, align 8
@.str.28 = private unnamed_addr constant [21 x i8] c"can't open v2 B-tree\00", align 1
@.str.29 = private unnamed_addr constant [35 x i8] c"can't patch v2 B-tree file pointer\00", align 1
@__func__.H5D__bt2_idx_get_addr = private unnamed_addr constant [22 x i8] c"H5D__bt2_idx_get_addr\00", align 1
@H5E_CANTFIND_g = external global i64, align 8
@.str.31 = private unnamed_addr constant [35 x i8] c"can't check for chunk in v2 B-tree\00", align 1

; Function Attrs: nounwind uwtable
define internal i32 @H5D__bt2_idx_get_addr(ptr noundef %0, ptr noundef %1) #0 {
  %3 = alloca ptr, align 8
  %4 = alloca ptr, align 8
  %5 = alloca ptr, align 8
  %6 = alloca %struct.H5D_bt2_ud_t, align 8
  %7 = alloca %struct.H5D_chunk_rec_t, align 8
  %8 = alloca i32, align 4
  %9 = alloca i8, align 1
  %10 = alloca i32, align 4
  %11 = alloca i8, align 1
  store ptr %0, ptr %3, align 8
  store ptr %1, ptr %4, align 8
  store i32 0, ptr %10, align 4
  store i8 0, ptr %11, align 1
  %12 = load ptr, ptr %3, align 8
  %13 = getelementptr inbounds %struct.H5D_chk_idx_info_t, ptr %12, i32 0, i32 3
  %14 = load ptr, ptr %13, align 8
  %15 = getelementptr inbounds %struct.H5O_storage_chunk_t, ptr %14, i32 0, i32 3
  %16 = getelementptr inbounds %struct.H5O_storage_chunk_bt2_t, ptr %15, i32 0, i32 1
  %17 = load ptr, ptr %16, align 8
  %18 = icmp ne ptr null, %17
  br i1 %18, label %39, label %19

19:                                               ; preds = %2
  %20 = load ptr, ptr %3, align 8
  %21 = call i32 @H5D__bt2_idx_open(ptr noundef %20)
  %22 = icmp slt i32 %21, 0
  br i1 %22, label %23, label %38

23:                                               ; preds = %19
  br label %24

24:                                               ; preds = %23
  br label %25

25:                                               ; preds = %24
  br label %26

26:                                               ; preds = %25
  %27 = load i64, ptr @H5E_DATASET_g, align 8
  %28 = load i64, ptr @H5E_CANTOPENOBJ_g, align 8
  %29 = call i32 (ptr, ptr, i32, i64, i64, ptr, ...) @H5E_printf_stack(ptr noundef @.str.2, ptr noundef @__func__.H5D__bt2_idx_get_addr, i32 noundef 1017, i64 noundef %27, i64 noundef %28, ptr noundef @.str.28)
  br label %30

30:                                               ; preds = %26
  store i8 1, ptr %11, align 1
  %31 = load i8, ptr %11, align 1
  %32 = trunc i8 %31 to i1
  %33 = zext i1 %32 to i8
  store i8 %33, ptr %11, align 1
  br label %34

34:                                               ; preds = %30
  br label %35

35:                                               ; preds = %34
  store i32 -1, ptr %10, align 4
  br label %180

36:                                               ; No predecessors!
  br label %37

37:                                               ; preds = %36
  br label %38

38:                                               ; preds = %37, %19
  br label %67

39:                                               ; preds = %2
  %40 = load ptr, ptr %3, align 8
  %41 = getelementptr inbounds %struct.H5D_chk_idx_info_t, ptr %40, i32 0, i32 3
  %42 = load ptr, ptr %41, align 8
  %43 = getelementptr inbounds %struct.H5O_storage_chunk_t, ptr %42, i32 0, i32 3
  %44 = getelementptr inbounds %struct.H5O_storage_chunk_bt2_t, ptr %43, i32 0, i32 1
  %45 = load ptr, ptr %44, align 8
  %46 = load ptr, ptr %3, align 8
  %47 = getelementptr inbounds %struct.H5D_chk_idx_info_t, ptr %46, i32 0, i32 0
  %48 = load ptr, ptr %47, align 8
  %49 = call i32 @H5B2_patch_file(ptr noundef %45, ptr noundef %48)
  %50 = icmp slt i32 %49, 0
  br i1 %50, label %51, label %66

51:                                               ; preds = %39
  br label %52

52:                                               ; preds = %51
  br label %53

53:                                               ; preds = %52
  br label %54

54:                                               ; preds = %53
  %55 = load i64, ptr @H5E_DATASET_g, align 8
  %56 = load i64, ptr @H5E_CANTOPENOBJ_g, align 8
  %57 = call i32 (ptr, ptr, i32, i64, i64, ptr, ...) @H5E_printf_stack(ptr noundef @.str.2, ptr noundef @__func__.H5D__bt2_idx_get_addr, i32 noundef 1021, i64 noundef %55, i64 noundef %56, ptr noundef @.str.29)
  br label %58

58:                                               ; preds = %54
  store i8 1, ptr %11, align 1
  %59 = load i8, ptr %11, align 1
  %60 = trunc i8 %59 to i1
  %61 = zext i1 %60 to i8
  store i8 %61, ptr %11, align 1
  br label %62

62:                                               ; preds = %58
  br label %63

63:                                               ; preds = %62
  store i32 -1, ptr %10, align 4
  br label %180

64:                                               ; No predecessors!
  br label %65

65:                                               ; preds = %64
  br label %66

66:                                               ; preds = %65, %39
  br label %67

67:                                               ; preds = %66, %38
  %68 = load ptr, ptr %3, align 8
  %69 = getelementptr inbounds %struct.H5D_chk_idx_info_t, ptr %68, i32 0, i32 3
  %70 = load ptr, ptr %69, align 8
  %71 = getelementptr inbounds %struct.H5O_storage_chunk_t, ptr %70, i32 0, i32 3
  %72 = getelementptr inbounds %struct.H5O_storage_chunk_bt2_t, ptr %71, i32 0, i32 1
  %73 = load ptr, ptr %72, align 8
  store ptr %73, ptr %5, align 8
  %74 = getelementptr inbounds %struct.H5D_chunk_rec_t, ptr %7, i32 0, i32 3
  store i64 -1, ptr %74, align 8
  %75 = getelementptr inbounds %struct.H5D_chunk_rec_t, ptr %7, i32 0, i32 1
  store i32 0, ptr %75, align 8
  %76 = getelementptr inbounds %struct.H5D_chunk_rec_t, ptr %7, i32 0, i32 2
  store i32 0, ptr %76, align 4
  %77 = getelementptr inbounds %struct.H5D_bt2_ud_t, ptr %6, i32 0, i32 0
  %78 = getelementptr inbounds %struct.H5D_chunk_rec_t, ptr %77, i32 0, i32 3
  store i64 -1, ptr %78, align 8
  %79 = load ptr, ptr %3, align 8
  %80 = getelementptr inbounds %struct.H5D_chk_idx_info_t, ptr %79, i32 0, i32 2
  %81 = load ptr, ptr %80, align 8
  %82 = getelementptr inbounds %struct.H5O_layout_chunk_t, ptr %81, i32 0, i32 2
  %83 = load i32, ptr %82, align 8
  %84 = sub i32 %83, 1
  %85 = getelementptr inbounds %struct.H5D_bt2_ud_t, ptr %6, i32 0, i32 1
  store i32 %84, ptr %85, align 8
  store i32 0, ptr %8, align 4
  br label %86

86:                                               ; preds = %109, %67
  %87 = load i32, ptr %8, align 4
  %88 = load ptr, ptr %3, align 8
  %89 = getelementptr inbounds %struct.H5D_chk_idx_info_t, ptr %88, i32 0, i32 2
  %90 = load ptr, ptr %89, align 8
  %91 = getelementptr inbounds %struct.H5O_layout_chunk_t, ptr %90, i32 0, i32 2
  %92 = load i32, ptr %91, align 8
  %93 = sub i32 %92, 1
  %94 = icmp ult i32 %87, %93
  br i1 %94, label %95, label %112

95:                                               ; preds = %86
  %96 = load ptr, ptr %4, align 8
  %97 = getelementptr inbounds %struct.H5D_chunk_ud_t, ptr %96, i32 0, i32 0
  %98 = getelementptr inbounds %struct.H5D_chunk_common_ud_t, ptr %97, i32 0, i32 2
  %99 = load ptr, ptr %98, align 8
  %100 = load i32, ptr %8, align 4
  %101 = zext i32 %100 to i64
  %102 = getelementptr inbounds i64, ptr %99, i64 %101
  %103 = load i64, ptr %102, align 8
  %104 = getelementptr inbounds %struct.H5D_bt2_ud_t, ptr %6, i32 0, i32 0
  %105 = getelementptr inbounds %struct.H5D_chunk_rec_t, ptr %104, i32 0, i32 0
  %106 = load i32, ptr %8, align 4
  %107 = zext i32 %106 to i64
  %108 = getelementptr inbounds [33 x i64], ptr %105, i64 0, i64 %107
  store i64 %103, ptr %108, align 8
  br label %109

109:                                              ; preds = %95
  %110 = load i32, ptr %8, align 4
  %111 = add i32 %110, 1
  store i32 %111, ptr %8, align 4
  br label %86

112:                                              ; preds = %86
  store i8 0, ptr %9, align 1
  %113 = load ptr, ptr %5, align 8
  %114 = call i32 @H5B2_find(ptr noundef %113, ptr noundef %6, ptr noundef %9, ptr noundef @H5D__bt2_found_cb, ptr noundef %7)
  %115 = icmp slt i32 %114, 0
  br i1 %115, label %116, label %131

116:                                              ; preds = %112
  br label %117

117:                                              ; preds = %116
  br label %118

118:                                              ; preds = %117
  br label %119

119:                                              ; preds = %118
  %120 = load i64, ptr @H5E_DATASET_g, align 8
  %121 = load i64, ptr @H5E_CANTFIND_g, align 8
  %122 = call i32 (ptr, ptr, i32, i64, i64, ptr, ...) @H5E_printf_stack(ptr noundef @.str.2, ptr noundef @__func__.H5D__bt2_idx_get_addr, i32 noundef 1042, i64 noundef %120, i64 noundef %121, ptr noundef @.str.31)
  br label %123

123:                                              ; preds = %119
  store i8 1, ptr %11, align 1
  %124 = load i8, ptr %11, align 1
  %125 = trunc i8 %124 to i1
  %126 = zext i1 %125 to i8
  store i8 %126, ptr %11, align 1
  br label %127

127:                                              ; preds = %123
  br label %128

128:                                              ; preds = %127
  store i32 -1, ptr %10, align 4
  br label %180

129:                                              ; No predecessors!
  br label %130

130:                                              ; preds = %129
  br label %131

131:                                              ; preds = %130, %112
  %132 = load i8, ptr %9, align 1
  %133 = trunc i8 %132 to i1
  br i1 %133, label %134, label %170

134:                                              ; preds = %131
  %135 = getelementptr inbounds %struct.H5D_chunk_rec_t, ptr %7, i32 0, i32 3
  %136 = load i64, ptr %135, align 8
  %137 = load ptr, ptr %4, align 8
  %138 = getelementptr inbounds %struct.H5D_chunk_ud_t, ptr %137, i32 0, i32 2
  %139 = getelementptr inbounds %struct.H5F_block_t, ptr %138, i32 0, i32 0
  store i64 %136, ptr %139, align 8
  %140 = load ptr, ptr %3, align 8
  %141 = getelementptr inbounds %struct.H5D_chk_idx_info_t, ptr %140, i32 0, i32 1
  %142 = load ptr, ptr %141, align 8
  %143 = getelementptr inbounds %struct.H5O_pline_t, ptr %142, i32 0, i32 3
  %144 = load i64, ptr %143, align 8
  %145 = icmp ugt i64 %144, 0
  br i1 %145, label %146, label %157

146:                                              ; preds = %134
  %147 = getelementptr inbounds %struct.H5D_chunk_rec_t, ptr %7, i32 0, i32 1
  %148 = load i32, ptr %147, align 8
  %149 = zext i32 %148 to i64
  %150 = load ptr, ptr %4, align 8
  %151 = getelementptr inbounds %struct.H5D_chunk_ud_t, ptr %150, i32 0, i32 2
  %152 = getelementptr inbounds %struct.H5F_block_t, ptr %151, i32 0, i32 1
  store i64 %149, ptr %152, align 8
  %153 = getelementptr inbounds %struct.H5D_chunk_rec_t, ptr %7, i32 0, i32 2
  %154 = load i32, ptr %153, align 4
  %155 = load ptr, ptr %4, align 8
  %156 = getelementptr inbounds %struct.H5D_chunk_ud_t, ptr %155, i32 0, i32 3
  store i32 %154, ptr %156, align 8
  br label %169

157:                                              ; preds = %134
  %158 = load ptr, ptr %3, align 8
  %159 = getelementptr inbounds %struct.H5D_chk_idx_info_t, ptr %158, i32 0, i32 2
  %160 = load ptr, ptr %159, align 8
  %161 = getelementptr inbounds %struct.H5O_layout_chunk_t, ptr %160, i32 0, i32 5
  %162 = load i32, ptr %161, align 4
  %163 = zext i32 %162 to i64
  %164 = load ptr, ptr %4, align 8
  %165 = getelementptr inbounds %struct.H5D_chunk_ud_t, ptr %164, i32 0, i32 2
  %166 = getelementptr inbounds %struct.H5F_block_t, ptr %165, i32 0, i32 1
  store i64 %163, ptr %166, align 8
  %167 = load ptr, ptr %4, align 8
  %168 = getelementptr inbounds %struct.H5D_chunk_ud_t, ptr %167, i32 0, i32 3
  store i32 0, ptr %168, align 8
  br label %169

169:                                              ; preds = %157, %146
  br label %179

170:                                              ; preds = %131
  %171 = load ptr, ptr %4, align 8
  %172 = getelementptr inbounds %struct.H5D_chunk_ud_t, ptr %171, i32 0, i32 2
  %173 = getelementptr inbounds %struct.H5F_block_t, ptr %172, i32 0, i32 0
  store i64 -1, ptr %173, align 8
  %174 = load ptr, ptr %4, align 8
  %175 = getelementptr inbounds %struct.H5D_chunk_ud_t, ptr %174, i32 0, i32 2
  %176 = getelementptr inbounds %struct.H5F_block_t, ptr %175, i32 0, i32 1
  store i64 0, ptr %176, align 8
  %177 = load ptr, ptr %4, align 8
  %178 = getelementptr inbounds %struct.H5D_chunk_ud_t, ptr %177, i32 0, i32 3
  store i32 0, ptr %178, align 8
  br label %179

179:                                              ; preds = %170, %169
  br label %180

180:                                              ; preds = %179, %128, %63, %35
  %181 = load i32, ptr %10, align 4
  ret i32 %181
}