; Function Attrs: nounwind uwtable
define internal range(i32 -1, 1) i32 @H5D__bt2_idx_get_addr(ptr nocapture noundef readonly %0, ptr nocapture noundef %1) #1 {
  %3 = alloca %struct.H5D_bt2_ud_t, align 8
  %4 = alloca %struct.H5D_chunk_rec_t, align 8
  %5 = alloca i8, align 1
  %6 = getelementptr inbounds i8, ptr %0, i64 24
  %7 = load ptr, ptr %6, align 8
  %8 = getelementptr inbounds i8, ptr %7, i64 32
  %9 = load ptr, ptr %8, align 8
  %.not = icmp eq ptr %9, null
  br i1 %.not, label %10, label %17

10:                                               ; preds = %2
  %11 = tail call i32 @H5D__bt2_idx_open(ptr noundef nonnull %0)
  %12 = icmp slt i32 %11, 0
  br i1 %12, label %13, label %25

13:                                               ; preds = %10
  %14 = load i64, ptr @H5E_DATASET_g, align 8
  %15 = load i64, ptr @H5E_CANTOPENOBJ_g, align 8
  %16 = tail call i32 (ptr, ptr, i32, i64, i64, ptr, ...) @H5E_printf_stack(ptr noundef nonnull @.str.2, ptr noundef nonnull @__func__.H5D__bt2_idx_get_addr, i32 noundef 1017, i64 noundef %14, i64 noundef %15, ptr noundef nonnull @.str.28) #14
  br label %80

17:                                               ; preds = %2
  %18 = load ptr, ptr %0, align 8
  %19 = tail call i32 @H5B2_patch_file(ptr noundef nonnull %9, ptr noundef %18) #14
  %20 = icmp slt i32 %19, 0
  br i1 %20, label %21, label %25

21:                                               ; preds = %17
  %22 = load i64, ptr @H5E_DATASET_g, align 8
  %23 = load i64, ptr @H5E_CANTOPENOBJ_g, align 8
  %24 = tail call i32 (ptr, ptr, i32, i64, i64, ptr, ...) @H5E_printf_stack(ptr noundef nonnull @.str.2, ptr noundef nonnull @__func__.H5D__bt2_idx_get_addr, i32 noundef 1021, i64 noundef %22, i64 noundef %23, ptr noundef nonnull @.str.29) #14
  br label %80

25:                                               ; preds = %17, %10
  %26 = load ptr, ptr %6, align 8
  %27 = getelementptr inbounds i8, ptr %26, i64 32
  %28 = load ptr, ptr %27, align 8
  %29 = getelementptr inbounds i8, ptr %4, i64 272
  store i64 -1, ptr %29, align 8
  %30 = getelementptr inbounds i8, ptr %4, i64 264
  store i32 0, ptr %30, align 8
  %31 = getelementptr inbounds i8, ptr %4, i64 268
  store i32 0, ptr %31, align 4
  %32 = getelementptr inbounds i8, ptr %3, i64 272
  store i64 -1, ptr %32, align 8
  %33 = getelementptr inbounds i8, ptr %0, i64 16
  %34 = load ptr, ptr %33, align 8
  %35 = getelementptr inbounds i8, ptr %34, i64 8
  %36 = load i32, ptr %35, align 8
  %37 = add i32 %36, -1
  %38 = getelementptr inbounds i8, ptr %3, i64 280
  store i32 %37, ptr %38, align 8
  %.not30 = icmp eq i32 %36, 1
  br i1 %.not30, label %._crit_edge, label %.lr.ph

.lr.ph:                                           ; preds = %25
  %39 = getelementptr inbounds i8, ptr %1, i64 16
  %40 = load ptr, ptr %39, align 8
  %41 = zext i32 %37 to i64
  br label %42

42:                                               ; preds = %.lr.ph, %42
  %indvars.iv = phi i64 [ 0, %.lr.ph ], [ %indvars.iv.next, %42 ]
  %43 = getelementptr inbounds i64, ptr %40, i64 %indvars.iv
  %44 = load i64, ptr %43, align 8
  %45 = getelementptr inbounds [33 x i64], ptr %3, i64 0, i64 %indvars.iv
  store i64 %44, ptr %45, align 8
  %indvars.iv.next = add nuw nsw i64 %indvars.iv, 1
  %46 = icmp ult i64 %indvars.iv.next, %41
  br i1 %46, label %42, label %._crit_edge

._crit_edge:                                      ; preds = %42, %25
  store i8 0, ptr %5, align 1
  %47 = call i32 @H5B2_find(ptr noundef %28, ptr noundef nonnull %3, ptr noundef nonnull %5, ptr noundef nonnull @H5D__bt2_found_cb, ptr noundef nonnull %4) #14
  %48 = icmp slt i32 %47, 0
  br i1 %48, label %49, label %53

49:                                               ; preds = %._crit_edge
  %50 = load i64, ptr @H5E_DATASET_g, align 8
  %51 = load i64, ptr @H5E_CANTFIND_g, align 8
  %52 = call i32 (ptr, ptr, i32, i64, i64, ptr, ...) @H5E_printf_stack(ptr noundef nonnull @.str.2, ptr noundef nonnull @__func__.H5D__bt2_idx_get_addr, i32 noundef 1042, i64 noundef %50, i64 noundef %51, ptr noundef nonnull @.str.31) #14
  br label %80

53:                                               ; preds = %._crit_edge
  %54 = load i8, ptr %5, align 1
  %55 = trunc i8 %54 to i1
  br i1 %55, label %56, label %76

56:                                               ; preds = %53
  %57 = load i64, ptr %29, align 8
  %58 = getelementptr inbounds i8, ptr %1, i64 32
  store i64 %57, ptr %58, align 8
  %59 = getelementptr inbounds i8, ptr %0, i64 8
  %60 = load ptr, ptr %59, align 8
  %61 = getelementptr inbounds i8, ptr %60, i64 56
  %62 = load i64, ptr %61, align 8
  %.not28 = icmp eq i64 %62, 0
  br i1 %.not28, label %69, label %63

63:                                               ; preds = %56
  %64 = load i32, ptr %30, align 8
  %65 = zext i32 %64 to i64
  %66 = getelementptr inbounds i8, ptr %1, i64 40
  store i64 %65, ptr %66, align 8
  %67 = load i32, ptr %31, align 4
  %68 = getelementptr inbounds i8, ptr %1, i64 48
  store i32 %67, ptr %68, align 8
  br label %80

69:                                               ; preds = %56
  %70 = load ptr, ptr %33, align 8
  %71 = getelementptr inbounds i8, ptr %70, i64 148
  %72 = load i32, ptr %71, align 4
  %73 = zext i32 %72 to i64
  %74 = getelementptr inbounds i8, ptr %1, i64 40
  store i64 %73, ptr %74, align 8
  %75 = getelementptr inbounds i8, ptr %1, i64 48
  store i32 0, ptr %75, align 8
  br label %80

76:                                               ; preds = %53
  %77 = getelementptr inbounds i8, ptr %1, i64 32
  store i64 -1, ptr %77, align 8
  %78 = getelementptr inbounds i8, ptr %1, i64 40
  store i64 0, ptr %78, align 8
  %79 = getelementptr inbounds i8, ptr %1, i64 48
  store i32 0, ptr %79, align 8
  br label %80

80:                                               ; preds = %76, %69, %63, %49, %21, %13
  %.0 = phi i32 [ -1, %21 ], [ -1, %49 ], [ 0, %63 ], [ 0, %69 ], [ 0, %76 ], [ -1, %13 ]
  ret i32 %.0
}